target datalayout = "e-m:e-p270:32:32-p271:32:32-p272:64:64-i64:64-i128:128-f80:128-n8:16:32:64-S128"
target triple = "x86_64-pc-linux-gnu"

%struct.stat = type { i64, i64, i64, i32, i32, i32, i32, i64, i64, i64, i64, %struct.timespec, %struct.timespec, %struct.timespec, [3 x i64] }
%struct.timespec = type { i64, i64 }

; Function Attrs: nounwind uwtable
define dso_local ptr @git_fopen(ptr noundef %0, ptr noundef %1) #0 {
  %3 = alloca ptr, align 8
  %4 = alloca ptr, align 8
  %5 = alloca ptr, align 8
  %6 = alloca ptr, align 8
  %7 = alloca %struct.stat, align 8
  %8 = alloca i32, align 4
  store ptr %0, ptr %4, align 8, !tbaa !4
  store ptr %1, ptr %5, align 8, !tbaa !4
  call void @llvm.lifetime.start.p0(i64 8, ptr %6) #5
  call void @llvm.lifetime.start.p0(i64 144, ptr %7) #5
  %9 = load ptr, ptr %5, align 8, !tbaa !4
  %10 = getelementptr inbounds i8, ptr %9, i64 0
  %11 = load i8, ptr %10, align 1, !tbaa !9
  %12 = sext i8 %11 to i32
  %13 = icmp eq i32 %12, 119
  br i1 %13, label %20, label %14

14:                                               ; preds = %2
  %15 = load ptr, ptr %5, align 8, !tbaa !4
  %16 = getelementptr inbounds i8, ptr %15, i64 0
  %17 = load i8, ptr %16, align 1, !tbaa !9
  %18 = sext i8 %17 to i32
  %19 = icmp eq i32 %18, 97
  br i1 %19, label %20, label %24

20:                                               ; preds = %14, %2
  %21 = load ptr, ptr %4, align 8, !tbaa !4
  %22 = load ptr, ptr %5, align 8, !tbaa !4
  %23 = call noalias ptr @fopen64(ptr noundef %21, ptr noundef %22)
  store ptr %23, ptr %3, align 8
  store i32 1, ptr %8, align 4
  br label %49

24:                                               ; preds = %14
  %25 = load ptr, ptr %4, align 8, !tbaa !4
  %26 = load ptr, ptr %5, align 8, !tbaa !4
  %27 = call noalias ptr @fopen64(ptr noundef %25, ptr noundef %26)
  store ptr %27, ptr %6, align 8, !tbaa !10
  %28 = icmp ne ptr %27, null
  br i1 %28, label %30, label %29

29:                                               ; preds = %24
  store ptr null, ptr %3, align 8
  store i32 1, ptr %8, align 4
  br label %49

30:                                               ; preds = %24
  %31 = load ptr, ptr %6, align 8, !tbaa !10
  %32 = call i32 @fileno(ptr noundef %31) #5
  %33 = call i32 @fstat64(i32 noundef %32, ptr noundef %7) #5
  %34 = icmp ne i32 %33, 0
  br i1 %34, label %35, label %38

35:                                               ; preds = %30
  %36 = load ptr, ptr %6, align 8, !tbaa !10
  %37 = call i32 @fclose(ptr noundef %36)
  store ptr null, ptr %3, align 8
  store i32 1, ptr %8, align 4
  br label %49

38:                                               ; preds = %30
  %39 = getelementptr inbounds nuw %struct.stat, ptr %7, i32 0, i32 3
  %40 = load i32, ptr %39, align 8, !tbaa !12
  %41 = and i32 %40, 61440
  %42 = icmp eq i32 %41, 16384
  br i1 %42, label %43, label %47

43:                                               ; preds = %38
  %44 = load ptr, ptr %6, align 8, !tbaa !10
  %45 = call i32 @fclose(ptr noundef %44)
  %46 = call ptr @__errno_location() #6
  store i32 21, ptr %46, align 4, !tbaa !17
  store ptr null, ptr %3, align 8
  store i32 1, ptr %8, align 4
  br label %49

47:                                               ; preds = %38
  %48 = load ptr, ptr %6, align 8, !tbaa !10
  store ptr %48, ptr %3, align 8
  store i32 1, ptr %8, align 4
  br label %49

49:                                               ; preds = %47, %43, %35, %29, %20
  call void @llvm.lifetime.end.p0(i64 144, ptr %7) #5
  call void @llvm.lifetime.end.p0(i64 8, ptr %6) #5
  %50 = load ptr, ptr %3, align 8
  ret ptr %50
}

; Function Attrs: nocallback nofree nosync nounwind willreturn memory(argmem: readwrite)
declare void @llvm.lifetime.start.p0(i64 immarg, ptr captures(none)) #1

declare noalias ptr @fopen64(ptr noundef, ptr noundef) #2

; Function Attrs: nounwind
declare i32 @fstat64(i32 noundef, ptr noundef) #3

; Function Attrs: nounwind
declare i32 @fileno(ptr noundef) #3

declare i32 @fclose(ptr noundef) #2

; Function Attrs: nounwind willreturn memory(none)
declare ptr @__errno_location() #4

; Function Attrs: nocallback nofree nosync nounwind willreturn memory(argmem: readwrite)
declare void @llvm.lifetime.end.p0(i64 immarg, ptr captures(none)) #1


!llvm.module.flags = !{!0, !1, !2, !3}

!0 = !{i32 1, !"wchar_size", i32 4}
!1 = !{i32 8, !"PIC Level", i32 2}
!2 = !{i32 7, !"PIE Level", i32 2}
!3 = !{i32 7, !"uwtable", i32 2}
!4 = !{!5, !5, i64 0}
!5 = !{!"p1 omnipotent char", !6, i64 0}
!6 = !{!"any pointer", !7, i64 0}
!7 = !{!"omnipotent char", !8, i64 0}
!8 = !{!"Simple C/C++ TBAA"}
!9 = !{!7, !7, i64 0}
!10 = !{!11, !11, i64 0}
!11 = !{!"p1 _ZTS8_IO_FILE", !6, i64 0}
!12 = !{!13, !15, i64 24}
!13 = !{!"stat", !14, i64 0, !14, i64 8, !14, i64 16, !15, i64 24, !15, i64 28, !15, i64 32, !15, i64 36, !14, i64 40, !14, i64 48, !14, i64 56, !14, i64 64, !16, i64 72, !16, i64 88, !16, i64 104, !7, i64 120}
!14 = !{!"long", !7, i64 0}
!15 = !{!"int", !7, i64 0}
!16 = !{!"timespec", !14, i64 0, !14, i64 8}
!17 = !{!15, !15, i64 0}
